target datalayout = "e-m:e-p270:32:32-p271:32:32-p272:64:64-i64:64-i128:128-f80:128-n8:16:32:64-S128"
target triple = "x86_64-pc-linux-gnu"

%class.OopClosure = type { ptr }
%struct.UnifiedOopRef = type { i64 }
%class.ReferenceLocateClosure = type <{ %class.OopClosure, ptr, %struct.RootCallbackInfo, i8, [7 x i8] }>
%struct.RootCallbackInfo = type { ptr, ptr, ptr, i32, i32 }

; Function Attrs: mustprogress nounwind uwtable
define linkonce_odr hidden noundef i64 @_ZNK13UnifiedOopRef4addrImEET_v(ptr noundef nonnull align 8 dereferenceable(8) %0) #1 comdat align 2 {
  %2 = alloca ptr, align 8
  store ptr %0, ptr %2, align 8
  %3 = load ptr, ptr %2, align 8
  %4 = getelementptr inbounds %struct.UnifiedOopRef, ptr %3, i32 0, i32 0
  %5 = load i64, ptr %4, align 8
  %6 = and i64 %5, -8
  %7 = lshr i64 %6, 1
  ret i64 %7
}

; Function Attrs: mustprogress nounwind uwtable
define linkonce_odr hidden noundef ptr @_ZNK13UnifiedOopRef4addrIPhEET_v(ptr noundef nonnull align 8 dereferenceable(8) %0) #1 comdat align 2 {
  %2 = alloca ptr, align 8
  store ptr %0, ptr %2, align 8
  %3 = load ptr, ptr %2, align 8
  %4 = call noundef i64 @_ZNK13UnifiedOopRef4addrImEET_v(ptr noundef nonnull align 8 dereferenceable(8) %3)
  %5 = inttoptr i64 %4 to ptr
  ret ptr %5
}

; Function Attrs: mustprogress nounwind uwtable
define linkonce_odr hidden i64 @_Z15create_with_tagIPKP7oopDescE13UnifiedOopRefT_m(ptr noundef %0, i64 noundef %1) #1 comdat {
  %3 = alloca %struct.UnifiedOopRef, align 8
  %4 = alloca ptr, align 8
  %5 = alloca i64, align 8
  %6 = alloca i64, align 8
  store ptr %0, ptr %4, align 8
  store i64 %1, ptr %5, align 8
  %7 = load ptr, ptr %4, align 8
  %8 = ptrtoint ptr %7 to i64
  store i64 %8, ptr %6, align 8
  %9 = load i64, ptr %6, align 8
  %10 = shl i64 %9, 1
  store i64 %10, ptr %6, align 8
  %11 = getelementptr inbounds %struct.UnifiedOopRef, ptr %3, i32 0, i32 0
  %12 = load i64, ptr %6, align 8
  %13 = load i64, ptr %5, align 8
  %14 = or i64 %12, %13
  store i64 %14, ptr %11, align 8
  %15 = getelementptr inbounds %struct.UnifiedOopRef, ptr %3, i32 0, i32 0
  %16 = load i64, ptr %15, align 8
  ret i64 %16
}

; Function Attrs: mustprogress nounwind uwtable
define hidden void @_ZN22ReferenceLocateClosure13do_oop_sharedE13UnifiedOopRef(ptr noundef nonnull align 8 dereferenceable(49) %0, i64 %1) #1 align 2 {
  %3 = alloca %struct.UnifiedOopRef, align 8
  %4 = alloca ptr, align 8
  %5 = getelementptr inbounds %struct.UnifiedOopRef, ptr %3, i32 0, i32 0
  store i64 %1, ptr %5, align 8
  store ptr %0, ptr %4, align 8
  %6 = load ptr, ptr %4, align 8
  %7 = getelementptr inbounds %class.ReferenceLocateClosure, ptr %6, i32 0, i32 3
  %8 = load i8, ptr %7, align 8
  %9 = trunc i8 %8 to i1
  br i1 %9, label %23, label %10

10:                                               ; preds = %2
  %11 = call noundef ptr @_ZNK13UnifiedOopRef4addrIPhEET_v(ptr noundef nonnull align 8 dereferenceable(8) %3)
  %12 = getelementptr inbounds %class.ReferenceLocateClosure, ptr %6, i32 0, i32 2
  %13 = getelementptr inbounds %struct.RootCallbackInfo, ptr %12, i32 0, i32 0
  store ptr %11, ptr %13, align 8
  %14 = getelementptr inbounds %class.ReferenceLocateClosure, ptr %6, i32 0, i32 1
  %15 = load ptr, ptr %14, align 8
  %16 = getelementptr inbounds %class.ReferenceLocateClosure, ptr %6, i32 0, i32 2
  %17 = load ptr, ptr %15, align 8
  %18 = getelementptr inbounds ptr, ptr %17, i64 0
  %19 = load ptr, ptr %18, align 8
  %20 = call noundef zeroext i1 %19(ptr noundef nonnull align 8 dereferenceable(8) %15, ptr noundef nonnull align 8 dereferenceable(32) %16)
  %21 = getelementptr inbounds %class.ReferenceLocateClosure, ptr %6, i32 0, i32 3
  %22 = zext i1 %20 to i8
  store i8 %22, ptr %21, align 8
  br label %23

23:                                               ; preds = %10, %2
  ret void
}

; Function Attrs: mustprogress nounwind uwtable
define linkonce_odr hidden i64 @_ZN13UnifiedOopRef16encode_in_nativeEPKP7oopDesc(ptr noundef %0) #1 comdat align 2 {
  %2 = alloca %struct.UnifiedOopRef, align 8
  %3 = alloca ptr, align 8
  store ptr %0, ptr %3, align 8
  %4 = load ptr, ptr %3, align 8
  %5 = call i64 @_Z15create_with_tagIPKP7oopDescE13UnifiedOopRefT_m(ptr noundef %4, i64 noundef 1)
  %6 = getelementptr inbounds %struct.UnifiedOopRef, ptr %2, i32 0, i32 0
  store i64 %5, ptr %6, align 8
  %7 = getelementptr inbounds %struct.UnifiedOopRef, ptr %2, i32 0, i32 0
  %8 = load i64, ptr %7, align 8
  ret i64 %8
}

; Function Attrs: mustprogress nounwind uwtable
define hidden void @_ZN22ReferenceLocateClosure6do_oopEPP7oopDesc(ptr noundef nonnull align 8 dereferenceable(49) %0, ptr noundef %1) unnamed_addr #1 align 2 {
  %3 = alloca ptr, align 8
  %4 = alloca ptr, align 8
  %5 = alloca %struct.UnifiedOopRef, align 8
  store ptr %0, ptr %3, align 8
  store ptr %1, ptr %4, align 8
  %6 = load ptr, ptr %3, align 8
  %7 = load ptr, ptr %4, align 8
  %8 = call i64 @_ZN13UnifiedOopRef16encode_in_nativeEPKP7oopDesc(ptr noundef %7)
  %9 = getelementptr inbounds %struct.UnifiedOopRef, ptr %5, i32 0, i32 0
  store i64 %8, ptr %9, align 8
  %10 = getelementptr inbounds %struct.UnifiedOopRef, ptr %5, i32 0, i32 0
  %11 = load i64, ptr %10, align 8
  call void @_ZN22ReferenceLocateClosure13do_oop_sharedE13UnifiedOopRef(ptr noundef nonnull align 8 dereferenceable(49) %6, i64 %11)
  ret void
}