; Function Attrs: mustprogress nounwind uwtable
define hidden void @_ZN22ReferenceLocateClosure6do_oopEPP7oopDesc(ptr noundef nonnull align 8 dereferenceable(49) %0, ptr noundef %1) unnamed_addr #0 align 2 {
  %3 = getelementptr inbounds i8, ptr %0, i64 48
  %4 = load i8, ptr %3, align 8
  %5 = trunc i8 %4 to i1
  br i1 %5, label %_ZN22ReferenceLocateClosure13do_oop_sharedE13UnifiedOopRef.exit, label %6

6:                                                ; preds = %2
  %7 = ptrtoint ptr %1 to i64
  %8 = and i64 %7, 9223372036854775804
  %9 = inttoptr i64 %8 to ptr
  %10 = getelementptr inbounds i8, ptr %0, i64 16
  store ptr %9, ptr %10, align 8
  %11 = getelementptr inbounds i8, ptr %0, i64 8
  %12 = load ptr, ptr %11, align 8
  %13 = load ptr, ptr %12, align 8
  %14 = load ptr, ptr %13, align 8
  %15 = tail call noundef zeroext i1 %14(ptr noundef nonnull align 8 dereferenceable(8) %12, ptr noundef nonnull align 8 dereferenceable(32) %10) #8
  %16 = zext i1 %15 to i8
  store i8 %16, ptr %3, align 8
  br label %_ZN22ReferenceLocateClosure13do_oop_sharedE13UnifiedOopRef.exit

_ZN22ReferenceLocateClosure13do_oop_sharedE13UnifiedOopRef.exit: ; preds = %2, %6
  ret void
}